; Function Attrs: mustprogress uwtable
define internal void @_ZN2cv12cpu_baselineL9cvt32s16fEPKhmS2_mPhmNS_5Size_IiEEPv(ptr nocapture noundef readonly %0, i64 noundef %1, ptr nocapture readnone %2, i64 %3, ptr nocapture noundef writeonly %4, i64 noundef %5, i64 %6, ptr nocapture readnone %7) #0 personality ptr @__gxx_personality_v0 {
  %9 = alloca %"class.cv::utils::trace::details::Region", align 8
  call void @_ZN2cv5utils5trace7details6RegionC1ERKNS3_21LocationStaticStorageE(ptr noundef nonnull align 8 dereferenceable(12) %9, ptr noundef nonnull align 8 dereferenceable(32) @_ZZN2cv12cpu_baselineL9cvt32s16fEPKhmS2_mPhmNS_5Size_IiEEPvE25__cv_trace_location_fn231)
  %.sroa.2.0.extract.shift.i = lshr i64 %6, 32
  %.sroa.2.0.extract.trunc.i = trunc nuw i64 %.sroa.2.0.extract.shift.i to i32
  %10 = lshr i64 %1, 2
  %11 = lshr i64 %5, 1
  %12 = icmp sgt i32 %.sroa.2.0.extract.trunc.i, 0
  %.sroa.013.0.extract.trunc.i = trunc i64 %6 to i32
  %13 = icmp sgt i32 %.sroa.013.0.extract.trunc.i, 0
  %or.cond.i = and i1 %13, %12
  br i1 %or.cond.i, label %.preheader.us.preheader.i, label %_ZN2cv12cpu_baselineL5cvt1_IiNS_6hfloatENS_12hal_baseline5v_regIfLi4EEEEEvPKT_mPT0_mNS_5Size_IiEE.exit

.preheader.us.preheader.i:                        ; preds = %8
  %wide.trip.count.i = and i64 %6, 2147483647
  br label %.preheader.us.i

.preheader.us.i:                                  ; preds = %._crit_edge.us.i, %.preheader.us.preheader.i
  %.020.us.i = phi ptr [ %45, %._crit_edge.us.i ], [ %0, %.preheader.us.preheader.i ]
  %.01519.us.i = phi i32 [ %44, %._crit_edge.us.i ], [ 0, %.preheader.us.preheader.i ]
  %.01618.us.i = phi ptr [ %46, %._crit_edge.us.i ], [ %4, %.preheader.us.preheader.i ]
  br label %14

14:                                               ; preds = %_ZN2cvL13saturate_castINS_6hfloatEEET_i.exit.us.i, %.preheader.us.i
  %indvars.iv.i = phi i64 [ 0, %.preheader.us.i ], [ %indvars.iv.next.i, %_ZN2cvL13saturate_castINS_6hfloatEEET_i.exit.us.i ]
  %15 = getelementptr inbounds i32, ptr %.020.us.i, i64 %indvars.iv.i
  %16 = load i32, ptr %15, align 4
  %17 = sitofp i32 %16 to float
  %18 = call float @llvm.fabs.f32(float %17)
  %19 = bitcast float %18 to i32
  %20 = icmp ugt i32 %19, 1199570943
  br i1 %20, label %34, label %21

21:                                               ; preds = %14
  %22 = icmp ult i32 %19, 947912704
  br i1 %22, label %30, label %23

23:                                               ; preds = %21
  %24 = add nuw nsw i32 %19, 134221823
  %25 = lshr i32 %19, 13
  %26 = and i32 %25, 1
  %27 = add nuw nsw i32 %24, %26
  %28 = lshr i32 %27, 13
  %29 = trunc i32 %28 to i16
  br label %_ZN2cvL13saturate_castINS_6hfloatEEET_i.exit.us.i

30:                                               ; preds = %21
  %31 = fadd float %18, 5.000000e-01
  %32 = bitcast float %31 to i32
  %33 = trunc i32 %32 to i16
  br label %_ZN2cvL13saturate_castINS_6hfloatEEET_i.exit.us.i

34:                                               ; preds = %14
  %35 = icmp ugt i32 %19, 2139095040
  %36 = select i1 %35, i16 32256, i16 31744
  br label %_ZN2cvL13saturate_castINS_6hfloatEEET_i.exit.us.i

_ZN2cvL13saturate_castINS_6hfloatEEET_i.exit.us.i: ; preds = %34, %30, %23
  %37 = phi i16 [ %33, %30 ], [ %29, %23 ], [ %36, %34 ]
  %38 = bitcast float %17 to i32
  %39 = lshr i32 %38, 16
  %40 = trunc nuw i32 %39 to i16
  %41 = and i16 %40, -32768
  %42 = or i16 %37, %41
  %43 = getelementptr inbounds %"class.cv::hfloat", ptr %.01618.us.i, i64 %indvars.iv.i
  store i16 %42, ptr %43, align 2
  %indvars.iv.next.i = add nuw nsw i64 %indvars.iv.i, 1
  %exitcond.not.i = icmp eq i64 %indvars.iv.next.i, %wide.trip.count.i
  br i1 %exitcond.not.i, label %._crit_edge.us.i, label %14, !llvm.loop !116

._crit_edge.us.i:                                 ; preds = %_ZN2cvL13saturate_castINS_6hfloatEEET_i.exit.us.i
  %44 = add nuw nsw i32 %.01519.us.i, 1
  %45 = getelementptr inbounds i32, ptr %.020.us.i, i64 %10
  %46 = getelementptr inbounds %"class.cv::hfloat", ptr %.01618.us.i, i64 %11
  %exitcond24.not.i = icmp eq i32 %44, %.sroa.2.0.extract.trunc.i
  br i1 %exitcond24.not.i, label %_ZN2cv12cpu_baselineL5cvt1_IiNS_6hfloatENS_12hal_baseline5v_regIfLi4EEEEEvPKT_mPT0_mNS_5Size_IiEE.exit, label %.preheader.us.i, !llvm.loop !117

_ZN2cv12cpu_baselineL5cvt1_IiNS_6hfloatENS_12hal_baseline5v_regIfLi4EEEEEvPKT_mPT0_mNS_5Size_IiEE.exit: ; preds = %._crit_edge.us.i, %8
  %47 = getelementptr inbounds i8, ptr %9, i64 8
  %48 = load i32, ptr %47, align 8
  %.not.i = icmp eq i32 %48, 0
  br i1 %.not.i, label %_ZN2cv5utils5trace7details6RegionD2Ev.exit, label %49

49:                                               ; preds = %_ZN2cv12cpu_baselineL5cvt1_IiNS_6hfloatENS_12hal_baseline5v_regIfLi4EEEEEvPKT_mPT0_mNS_5Size_IiEE.exit
  invoke void @_ZN2cv5utils5trace7details6Region7destroyEv(ptr noundef nonnull align 8 dereferenceable(12) %9)
          to label %_ZN2cv5utils5trace7details6RegionD2Ev.exit unwind label %50

50:                                               ; preds = %49
  %51 = landingpad { ptr, i32 }
          catch ptr null
  %52 = extractvalue { ptr, i32 } %51, 0
  call void @__clang_call_terminate(ptr %52) #14
  unreachable

_ZN2cv5utils5trace7details6RegionD2Ev.exit:       ; preds = %_ZN2cv12cpu_baselineL5cvt1_IiNS_6hfloatENS_12hal_baseline5v_regIfLi4EEEEEvPKT_mPT0_mNS_5Size_IiEE.exit, %49
  ret void
}